(dp0
S'learning <dobj>'
p1
(dp2
S'type'
p3
S'dobj'
p4
sS'freq'
p5
I8
sS'subj_freq'
p6
I8
sS'display'
p7
S'learning'
p8
sS'prob'
p9
F1.0
ssVwatched <dobj>
p10
(dp11
S'subj_freq'
p12
I27
sS'freq'
p13
I27
sS'type'
p14
S'dobj'
p15
sS'display'
p16
Vwatched
p17
sS'prob'
p18
F1.0
ssV<subj> tracks
p19
(dp20
S'type'
p21
S'subj'
p22
sS'freq'
p23
I9
sS'subj_freq'
p24
I9
sS'display'
p25
Vtracks
p26
sS'prob'
p27
F1.0
ssVimagined <dobj>
p28
(dp29
g21
S'dobj'
p30
sg23
I9
sg24
I9
sg25
Vimagined
p31
sg27
F1.0
ssVbring <dobj>
p32
(dp33
g21
g30
sg23
I9
sg24
I9
sg25
Vbring
p34
sg27
F1.0
ssS'<subj> do'
p35
(dp36
S'type'
p37
S'subj'
p38
sS'freq'
p39
I1
sS'subj_freq'
p40
I1
sS'display'
p41
S'do'
p42
sS'prob'
p43
F1.0
ssVfeatured <dobj>
p44
(dp45
g21
g30
sg23
I9
sg24
I9
sg25
Vfeatured
p46
sg27
F1.0
ssS'do <dobj>'
p47
(dp48
g37
S'dobj'
p49
sg39
I1
sg40
I1
sg41
S'do'
p50
sg43
F1.0
ssV<subj> posted people
p51
(dp52
g12
I36
sg13
I36
sg14
S'subj'
p53
sg16
Vposted people
p54
sg18
F1.0
ssV<subj> get seat
p55
(dp56
g21
g22
sg23
I9
sg24
I9
sg25
Vget seat
p57
sg27
F1.0
ssS"<subj> 'm"
p58
(dp59
S'subj_freq'
p60
I9
sS'freq'
p61
I9
sS'type'
p62
S'subj'
p63
sS'display'
p64
S"'m"
p65
sS'prob'
p66
F1.0
ssVdid <dobj>
p67
(dp68
g12
I27
sg13
I27
sg14
g15
sg16
Vdid
p69
sg18
F1.0
ssVkeep <dobj>
p70
(dp71
g21
g30
sg23
I9
sg24
I9
sg25
Vkeep
p72
sg27
F1.0
ssV<subj> featured
p73
(dp74
g21
g22
sg23
I9
sg24
I9
sg25
Vfeatured
p75
sg27
F1.0
ssS'<subj> found'
p76
(dp77
S'subj_freq'
p78
I4
sS'freq'
p79
I4
sS'type'
p80
S'subj'
p81
sS'display'
p82
S'found'
p83
sS'prob'
p84
F1.0
ssVconveyed <dobj>
p85
(dp86
g21
g30
sg23
I9
sg24
I9
sg25
Vconveyed
p87
sg27
F1.0
ssVCalled <dobj>
p88
(dp89
g21
g30
sg23
I23
sg24
I23
sg25
VCalled
p90
sg27
F1.0
ssVwait <dobj>
p91
(dp92
g21
g30
sg23
I7
sg24
I7
sg25
Vwait
p93
sg27
F1.0
ssVforces <dobj>
p94
(dp95
g12
I27
sg13
I27
sg14
g15
sg16
Vforces
p96
sg18
F1.0
ssV<subj> did
p97
(dp98
g12
I27
sg13
I27
sg14
g53
sg16
Vdid
p99
sg18
F1.0
ssV<subj> blown
p100
(dp101
g12
I36
sg13
I36
sg14
g53
sg16
Vblown
p102
sg18
F1.0
ssS"'m <dobj>"
p103
(dp104
g60
I9
sg61
I9
sg62
S'dobj'
p105
sg64
S"'m"
p106
sg66
F1.0
ssVposted <dobj>
p107
(dp108
g12
I36
sg13
I36
sg14
g15
sg16
Vposted
p109
sg18
F1.0
ssV<subj> Called L
p110
(dp111
g21
g22
sg23
I7
sg24
I7
sg25
VCalled L
p112
sg27
F1.0
ssVreleased <dobj>
p113
(dp114
g21
g30
sg23
I9
sg24
I9
sg25
Vreleased
p115
sg27
F1.0
ssV<subj> conveyed
p116
(dp117
g21
g22
sg23
I9
sg24
I9
sg25
Vconveyed
p118
sg27
F1.0
ssV<subj> 'm nurse
p119
(dp120
S'type'
p121
S'subj'
p122
sS'freq'
p123
I2
sS'subj_freq'
p124
I2
sS'display'
p125
V'm nurse
p126
sS'prob'
p127
F1.0
ssS'found <dobj>'
p128
(dp129
g78
I4
sg79
I4
sg80
S'dobj'
p130
sg82
S'found'
p131
sg84
F1.0
ssVblown <dobj>
p132
(dp133
g12
I36
sg13
I36
sg14
g15
sg16
Vblown
p134
sg18
F1.0
ssVCompiled <dobj>
p135
(dp136
g21
g30
sg23
I9
sg24
I9
sg25
VCompiled
p137
sg27
F1.0
ssV<subj> get
p138
(dp139
g21
g22
sg23
I9
sg24
I9
sg25
Vget
p140
sg27
F1.0
ssV<subj> give
p141
(dp142
g12
I40
sg13
I40
sg14
g53
sg16
Vgive
p143
sg18
F1.0
ssV<subj> keep
p144
(dp145
g21
g22
sg23
I9
sg24
I9
sg25
Vkeep
p146
sg27
F1.0
ssV<subj> forces
p147
(dp148
g12
I27
sg13
I27
sg14
g53
sg16
Vforces
p149
sg18
F1.0
ssV<subj> released
p150
(dp151
g21
g22
sg23
I9
sg24
I9
sg25
Vreleased
p152
sg27
F1.0
ssV<subj> was blown
p153
(dp154
g12
I36
sg13
I36
sg14
g53
sg16
Vwas blown
p155
sg18
F1.0
ssV<subj> capture
p156
(dp157
g21
g22
sg23
I9
sg24
I9
sg25
Vcapture
p158
sg27
F1.0
ssVtracks <dobj>
p159
(dp160
g21
g30
sg23
I9
sg24
I9
sg25
Vtracks
p161
sg27
F1.0
ssS'<subj> found presentation'
p162
(dp163
g78
I4
sg79
I4
sg80
g81
sg82
S'found presentation'
p164
sg84
F1.0
ssS'<subj> think'
p165
(dp166
S'type'
p167
S'subj'
p168
sS'freq'
p169
I4
sS'subj_freq'
p170
I4
sS'display'
p171
S'think'
p172
sS'prob'
p173
F1.0
ssVgive <dobj>
p174
(dp175
g12
I40
sg13
I40
sg14
g15
sg16
Vgive
p176
sg18
F1.0
ssS'think <dobj>'
p177
(dp178
g167
S'dobj'
p179
sg169
I4
sg170
I4
sg171
S'think'
p180
sg173
F1.0
ssV<subj> posted
p181
(dp182
g12
I36
sg13
I36
sg14
g53
sg16
Vposted
p183
sg18
F1.0
ssV<subj> Called D
p184
(dp185
g21
g22
sg23
I7
sg24
I7
sg25
VCalled D
p186
sg27
F1.0
ssV<subj> Called
p187
(dp188
g21
g22
sg23
I23
sg24
I23
sg25
VCalled
p189
sg27
F1.0
ssS'sharing <dobj>'
p190
(dp191
g21
g30
sg23
I14
sg24
I0
sg25
S'sharing'
p192
sg27
F0.0
ssS'<subj> learning'
p193
(dp194
g3
S'subj'
p195
sg5
I8
sg6
I8
sg7
S'learning'
p196
sg9
F1.0
ssVget <dobj>
p197
(dp198
g21
g30
sg23
I9
sg24
I9
sg25
Vget
p199
sg27
F1.0
ssV<subj> wait
p200
(dp201
g21
g22
sg23
I7
sg24
I7
sg25
Vwait
p202
sg27
F1.0
ssV<subj> Called Ad
p203
(dp204
g21
g22
sg23
I14
sg24
I14
sg25
VCalled Ad
p205
sg27
F1.0
ssVread <dobj>
p206
(dp207
g12
I36
sg13
I36
sg14
g15
sg16
Vread
p208
sg18
F1.0
ssV<subj> imagined
p209
(dp210
g21
g22
sg23
I9
sg24
I9
sg25
Vimagined
p211
sg27
F1.0
ssV<subj> watched
p212
(dp213
g12
I27
sg13
I27
sg14
g53
sg16
Vwatched
p214
sg18
F1.0
ssS'<subj> sharing'
p215
(dp216
g21
g22
sg23
I14
sg24
I0
sg25
S'sharing'
p217
sg27
F0.0
ssV<subj> bring
p218
(dp219
g21
g22
sg23
I9
sg24
I9
sg25
Vbring
p220
sg27
F1.0
ssVcapture <dobj>
p221
(dp222
g21
g30
sg23
I9
sg24
I9
sg25
Vcapture
p223
sg27
F1.0
ssV<subj> Compiled
p224
(dp225
g21
g22
sg23
I9
sg24
I9
sg25
VCompiled
p226
sg27
F1.0
ssV<subj> imagined worlds
p227
(dp228
g21
g22
sg23
I9
sg24
I9
sg25
Vimagined worlds
p229
sg27
F1.0
ssV<subj> Called Land
p230
(dp231
g21
g22
sg23
I23
sg24
I23
sg25
VCalled Land
p232
sg27
F1.0
ssV<subj> read
p233
(dp234
g12
I36
sg13
I36
sg14
g53
sg16
Vread
p235
sg18
F1.0
ss.