(dp0
S'learning <dobj>'
p1
(dp2
S'subj_freq'
p3
I8
sS'freq'
p4
I8
sS'type'
p5
S'dobj'
p6
sS'display'
p7
S'learning'
p8
sS'prob'
p9
F1.0
ssVwatched <dobj>
p10
(dp11
S'type'
p12
S'dobj'
p13
sS'freq'
p14
I27
sS'subj_freq'
p15
I27
sS'display'
p16
Vwatched
p17
sS'prob'
p18
F1.0
ssV<subj> tracks
p19
(dp20
S'subj_freq'
p21
I9
sS'freq'
p22
I9
sS'type'
p23
S'subj'
p24
sS'display'
p25
Vtracks
p26
sS'prob'
p27
F1.0
ssVimagined <dobj>
p28
(dp29
g21
I9
sg22
I9
sg23
S'dobj'
p30
sg25
Vimagined
p31
sg27
F1.0
ssVbring <dobj>
p32
(dp33
g21
I9
sg22
I9
sg23
g30
sg25
Vbring
p34
sg27
F1.0
ssS'<subj> do'
p35
(dp36
S'subj_freq'
p37
I1
sS'freq'
p38
I1
sS'type'
p39
S'subj'
p40
sS'display'
p41
S'do'
p42
sS'prob'
p43
F1.0
ssVfeatured <dobj>
p44
(dp45
g21
I9
sg22
I9
sg23
g30
sg25
Vfeatured
p46
sg27
F1.0
ssS'do <dobj>'
p47
(dp48
g37
I1
sg38
I1
sg39
S'dobj'
p49
sg41
S'do'
p50
sg43
F1.0
ssV<subj> posted people
p51
(dp52
g12
S'subj'
p53
sg14
I36
sg15
I36
sg16
Vposted people
p54
sg18
F1.0
ssV<subj> get seat
p55
(dp56
g21
I9
sg22
I9
sg23
g24
sg25
Vget seat
p57
sg27
F1.0
ssS"<subj> 'm"
p58
(dp59
S'type'
p60
S'subj'
p61
sS'freq'
p62
I9
sS'subj_freq'
p63
I9
sS'display'
p64
S"'m"
p65
sS'prob'
p66
F1.0
ssVdid <dobj>
p67
(dp68
g12
g13
sg14
I27
sg15
I27
sg16
Vdid
p69
sg18
F1.0
ssVkeep <dobj>
p70
(dp71
g21
I9
sg22
I9
sg23
g30
sg25
Vkeep
p72
sg27
F1.0
ssV<subj> featured
p73
(dp74
g21
I9
sg22
I9
sg23
g24
sg25
Vfeatured
p75
sg27
F1.0
ssS'<subj> found'
p76
(dp77
S'type'
p78
S'subj'
p79
sS'freq'
p80
I4
sS'subj_freq'
p81
I4
sS'display'
p82
S'found'
p83
sS'prob'
p84
F1.0
ssV<subj> wait
p85
(dp86
g21
I7
sg22
I7
sg23
g24
sg25
Vwait
p87
sg27
F1.0
ssVconveyed <dobj>
p88
(dp89
g21
I9
sg22
I9
sg23
g30
sg25
Vconveyed
p90
sg27
F1.0
ssVCalled <dobj>
p91
(dp92
g21
I23
sg22
I23
sg23
g30
sg25
VCalled
p93
sg27
F1.0
ssVwait <dobj>
p94
(dp95
g21
I7
sg22
I7
sg23
g30
sg25
Vwait
p96
sg27
F1.0
ssVforces <dobj>
p97
(dp98
g12
g13
sg14
I27
sg15
I27
sg16
Vforces
p99
sg18
F1.0
ssV<subj> did
p100
(dp101
g12
g53
sg14
I27
sg15
I27
sg16
Vdid
p102
sg18
F1.0
ssV<subj> blown
p103
(dp104
g12
g53
sg14
I36
sg15
I36
sg16
Vblown
p105
sg18
F1.0
ssS"'m <dobj>"
p106
(dp107
g60
S'dobj'
p108
sg62
I9
sg63
I9
sg64
S"'m"
p109
sg66
F1.0
ssVposted <dobj>
p110
(dp111
g12
g13
sg14
I36
sg15
I36
sg16
Vposted
p112
sg18
F1.0
ssVreleased <dobj>
p113
(dp114
g21
I9
sg22
I9
sg23
g30
sg25
Vreleased
p115
sg27
F1.0
ssV<subj> 'm nurse
p116
(dp117
S'subj_freq'
p118
I2
sS'freq'
p119
I2
sS'type'
p120
S'subj'
p121
sS'display'
p122
V'm nurse
p123
sS'prob'
p124
F1.0
ssV<subj> imagined worlds
p125
(dp126
g21
I9
sg22
I9
sg23
g24
sg25
Vimagined worlds
p127
sg27
F1.0
ssVblown <dobj>
p128
(dp129
g12
g13
sg14
I36
sg15
I36
sg16
Vblown
p130
sg18
F1.0
ssVCompiled <dobj>
p131
(dp132
g21
I9
sg22
I9
sg23
g30
sg25
VCompiled
p133
sg27
F1.0
ssV<subj> get
p134
(dp135
g21
I9
sg22
I9
sg23
g24
sg25
Vget
p136
sg27
F1.0
ssV<subj> give
p137
(dp138
g12
g53
sg14
I40
sg15
I40
sg16
Vgive
p139
sg18
F1.0
ssV<subj> conveyed
p140
(dp141
g21
I9
sg22
I9
sg23
g24
sg25
Vconveyed
p142
sg27
F1.0
ssV<subj> forces
p143
(dp144
g12
g53
sg14
I27
sg15
I27
sg16
Vforces
p145
sg18
F1.0
ssV<subj> Called Ad
p146
(dp147
g21
I14
sg22
I14
sg23
g24
sg25
VCalled Ad
p148
sg27
F1.0
ssV<subj> was blown
p149
(dp150
g12
g53
sg14
I36
sg15
I36
sg16
Vwas blown
p151
sg18
F1.0
ssV<subj> capture
p152
(dp153
g21
I9
sg22
I9
sg23
g24
sg25
Vcapture
p154
sg27
F1.0
ssVtracks <dobj>
p155
(dp156
g21
I9
sg22
I9
sg23
g30
sg25
Vtracks
p157
sg27
F1.0
ssS'<subj> found presentation'
p158
(dp159
g78
g79
sg80
I4
sg81
I4
sg82
S'found presentation'
p160
sg84
F1.0
ssS'<subj> think'
p161
(dp162
S'subj_freq'
p163
I4
sS'freq'
p164
I4
sS'type'
p165
S'subj'
p166
sS'display'
p167
S'think'
p168
sS'prob'
p169
F1.0
ssVgive <dobj>
p170
(dp171
g12
g13
sg14
I40
sg15
I40
sg16
Vgive
p172
sg18
F1.0
ssS'think <dobj>'
p173
(dp174
g163
I4
sg164
I4
sg165
S'dobj'
p175
sg167
S'think'
p176
sg169
F1.0
ssV<subj> posted
p177
(dp178
g12
g53
sg14
I36
sg15
I36
sg16
Vposted
p179
sg18
F1.0
ssV<subj> Called D
p180
(dp181
g21
I7
sg22
I7
sg23
g24
sg25
VCalled D
p182
sg27
F1.0
ssV<subj> Called
p183
(dp184
g21
I23
sg22
I23
sg23
g24
sg25
VCalled
p185
sg27
F1.0
ssS'sharing <dobj>'
p186
(dp187
g21
I0
sg22
I14
sg23
g30
sg25
S'sharing'
p188
sg27
F0.0
ssS'<subj> learning'
p189
(dp190
g3
I8
sg4
I8
sg5
S'subj'
p191
sg7
S'learning'
p192
sg9
F1.0
ssVget <dobj>
p193
(dp194
g21
I9
sg22
I9
sg23
g30
sg25
Vget
p195
sg27
F1.0
ssV<subj> Called L
p196
(dp197
g21
I7
sg22
I7
sg23
g24
sg25
VCalled L
p198
sg27
F1.0
ssV<subj> released
p199
(dp200
g21
I9
sg22
I9
sg23
g24
sg25
Vreleased
p201
sg27
F1.0
ssVread <dobj>
p202
(dp203
g12
g13
sg14
I36
sg15
I36
sg16
Vread
p204
sg18
F1.0
ssV<subj> imagined
p205
(dp206
g21
I9
sg22
I9
sg23
g24
sg25
Vimagined
p207
sg27
F1.0
ssV<subj> watched
p208
(dp209
g12
g53
sg14
I27
sg15
I27
sg16
Vwatched
p210
sg18
F1.0
ssS'<subj> sharing'
p211
(dp212
g21
I0
sg22
I14
sg23
g24
sg25
S'sharing'
p213
sg27
F0.0
ssV<subj> bring
p214
(dp215
g21
I9
sg22
I9
sg23
g24
sg25
Vbring
p216
sg27
F1.0
ssVcapture <dobj>
p217
(dp218
g21
I9
sg22
I9
sg23
g30
sg25
Vcapture
p219
sg27
F1.0
ssV<subj> Called Land
p220
(dp221
g21
I23
sg22
I23
sg23
g24
sg25
VCalled Land
p222
sg27
F1.0
ssV<subj> Compiled
p223
(dp224
g21
I9
sg22
I9
sg23
g24
sg25
VCompiled
p225
sg27
F1.0
ssS'found <dobj>'
p226
(dp227
g78
S'dobj'
p228
sg80
I4
sg81
I4
sg82
S'found'
p229
sg84
F1.0
ssV<subj> keep
p230
(dp231
g21
I9
sg22
I9
sg23
g24
sg25
Vkeep
p232
sg27
F1.0
ssV<subj> read
p233
(dp234
g12
g53
sg14
I36
sg15
I36
sg16
Vread
p235
sg18
F1.0
ss.